Archive member included to satisfy reference by file (symbol)

c:/program files/microchip/xc32/v2.40/bin/bin/../../lib/gcc/pic32c/6.2.1/../../../../pic32c/lib/v8-m.base\libpic32c.a(data_init.o)
                              build/Trustify/debug/_ext/1060005641/startup_xc32.o (__pic32c_data_initialization)
c:/program files/microchip/xc32/v2.40/bin/bin/../../lib/gcc/pic32c/6.2.1/v8-m.base\libgcc.a(cmse_nonsecure_call.o)
                              build/Trustify/debug/_ext/1360937237/main.o (__gnu_cmse_nonsecure_call)
c:/program files/microchip/xc32/v2.40/bin/bin/../../lib/gcc/pic32c/6.2.1/v8-m.base\libgcc.a(_aeabi_uldivmod.o)
                              build/Trustify/debug/_ext/1247632078/plib_sercom0_usart.o (__aeabi_uldivmod)
c:/program files/microchip/xc32/v2.40/bin/bin/../../lib/gcc/pic32c/6.2.1/v8-m.base\libgcc.a(_muldi3.o)
                              build/Trustify/debug/_ext/1247632078/plib_sercom0_usart.o (__aeabi_lmul)
c:/program files/microchip/xc32/v2.40/bin/bin/../../lib/gcc/pic32c/6.2.1/v8-m.base\libgcc.a(_udivmoddi4.o)
                              c:/program files/microchip/xc32/v2.40/bin/bin/../../lib/gcc/pic32c/6.2.1/v8-m.base\libgcc.a(_aeabi_uldivmod.o) (__udivmoddi4)
c:/program files/microchip/xc32/v2.40/bin/bin/../../lib/gcc/pic32c/6.2.1/v8-m.base\libgcc.a(_dvmd_tls.o)
                              c:/program files/microchip/xc32/v2.40/bin/bin/../../lib/gcc/pic32c/6.2.1/v8-m.base\libgcc.a(_aeabi_uldivmod.o) (__aeabi_ldiv0)
c:/program files/microchip/xc32/v2.40/bin/bin/../../lib/gcc/pic32c/6.2.1/v8-m.base\libgcc.a(_clzsi2.o)
                              c:/program files/microchip/xc32/v2.40/bin/bin/../../lib/gcc/pic32c/6.2.1/v8-m.base\libgcc.a(_udivmoddi4.o) (__clzsi2)
c:/program files/microchip/xc32/v2.40/bin/bin/../../lib/gcc/pic32c/6.2.1/../../../../pic32c/lib/v8-m.base\libg_nano.a(lib_a-init.o)
                              build/Trustify/debug/_ext/1060005641/startup_xc32.o (__libc_init_array)
c:/program files/microchip/xc32/v2.40/bin/bin/../../lib/gcc/pic32c/6.2.1/../../../../pic32c/lib/v8-m.base\libg_nano.a(lib_a-memcpy-stub.o)
                              build/Trustify/debug/_ext/2117940715/plib_nvmctrl.o (memcpy)

Microchip PIC32 Memory-Usage Report

ROM Program-Memory Usage
section                    address  length [bytes]      (dec)  Description
-------                 ----------  -------------------------  -----------
.vectors                         0           0xf4         244   
.text                         0xf4           0x20          32  App's exec code 
.text.CLOCK_Initialize       0x114           0xa4         164   
.text.__pic32c_data_ini      0x1b8           0x88         136   
.text.Reset_Handler          0x240           0x50          80   
.text.__libc_init_array      0x290           0x48          72   
.text                        0x2d8           0x40          64  App's exec code 
.text.main                   0x318           0x40          64   
.text.SERCOM0_USART_Ini      0x358           0x38          56   
.text                        0x390           0x32          50  App's exec code 
.text.EVSYS_Initialize       0x3c2            0x2           2   
.text.SERCOM0_USART_Wri      0x3c4           0x30          48   
.text.SYS_Initialize         0x3f4           0x30          48   
.text.PM_Initialize          0x424           0x24          36   
.text.PORT_Initialize        0x448           0x20          32   
.dinit                       0x468           0x20          32   
.text.secure_add             0x488           0x1a          26   
.text.NVMCTRL_Initializ      0x4a4           0x10          16   
.text.BSP_Initialize         0x4b4            0xc          12   
.rodata                      0x4c0            0x8           8  Read-only const 
.text.NVIC_Initialize        0x4c8            0x8           8   
.text.Dummy_Handler          0x4d0            0x4           4   
.text.add                    0x4d4            0x4           4   
.text.NonMaskableInt_Ha      0x4d8            0x4           4   
.text.HardFault_Handler      0x4dc            0x4           4   
.gnu.sgstubs                0x7e00            0x8           8   
      Total ROM used  :       0x4e6        1254  3.8% of 0x8000
        --------------------------------------------------------------------------
         Total Program Memory used  :       0x4e6        1254  3.8% of 0x8000
        --------------------------------------------------------------------------


RAM Data-Memory Usage
section                    address  length [bytes]      (dec)  Description
-------                 ----------  -------------------------  -----------
.bss                    0x20000000           0x1c          28  Uninitialized data 
         Total RAM used  :        0x1c          28  0.3% of 0x2000
        --------------------------------------------------------------------------
            Total Data Memory used  :        0x1c          28  0.3% of 0x2000
        --------------------------------------------------------------------------


Dynamic Data-Memory Reservation
section                    address  length [bytes]      (dec)  Description
-------                 ----------  -------------------------  -----------
heap                    0x20000020              0           0  Reserved for heap 
stack                   0x20000038         0x1fb8        8120  Reserved for stack 

        --------------------------------------------------------------------------

Discarded input sections

 .text          0x00000000        0x0 c:/program files/microchip/xc32/v2.40/bin/bin/../../lib/gcc/pic32c/6.2.1/v8-m.base/crti.o
 .data          0x00000000        0x0 c:/program files/microchip/xc32/v2.40/bin/bin/../../lib/gcc/pic32c/6.2.1/v8-m.base/crti.o
 .bss           0x00000000        0x0 c:/program files/microchip/xc32/v2.40/bin/bin/../../lib/gcc/pic32c/6.2.1/v8-m.base/crti.o
 .data          0x00000000        0x4 c:/program files/microchip/xc32/v2.40/bin/bin/../../lib/gcc/pic32c/6.2.1/v8-m.base/crtbegin.o
 .text          0x00000000        0x0 build/Trustify/debug/_ext/2117940715/plib_nvmctrl.o
 .data          0x00000000        0x0 build/Trustify/debug/_ext/2117940715/plib_nvmctrl.o
 .bss           0x00000000        0x0 build/Trustify/debug/_ext/2117940715/plib_nvmctrl.o
 .text.NVMCTRL_CacheInvalidate
                0x00000000       0x10 build/Trustify/debug/_ext/2117940715/plib_nvmctrl.o
 .text.NVMCTRL_Read
                0x00000000       0x10 build/Trustify/debug/_ext/2117940715/plib_nvmctrl.o
 .text.NVMCTRL_PageWrite
                0x00000000       0x3c build/Trustify/debug/_ext/2117940715/plib_nvmctrl.o
 .text.NVMCTRL_RowErase
                0x00000000       0x2c build/Trustify/debug/_ext/2117940715/plib_nvmctrl.o
 .text.NVMCTRL_ErrorGet
                0x00000000       0x10 build/Trustify/debug/_ext/2117940715/plib_nvmctrl.o
 .text.NVMCTRL_IsBusy
                0x00000000       0x14 build/Trustify/debug/_ext/2117940715/plib_nvmctrl.o
 .text.NVMCTRL_RegionLock
                0x00000000       0x14 build/Trustify/debug/_ext/2117940715/plib_nvmctrl.o
 .text.NVMCTRL_RegionUnlock
                0x00000000       0x1c build/Trustify/debug/_ext/2117940715/plib_nvmctrl.o
 .text          0x00000000        0x0 build/Trustify/debug/_ext/1025033151/plib_evsys.o
 .data          0x00000000        0x0 build/Trustify/debug/_ext/1025033151/plib_evsys.o
 .bss           0x00000000        0x0 build/Trustify/debug/_ext/1025033151/plib_evsys.o
 .text          0x00000000        0x0 build/Trustify/debug/_ext/1247632078/plib_sercom0_usart.o
 .data          0x00000000        0x0 build/Trustify/debug/_ext/1247632078/plib_sercom0_usart.o
 .bss           0x00000000        0x0 build/Trustify/debug/_ext/1247632078/plib_sercom0_usart.o
 .text.SERCOM0_USART_FrequencyGet
                0x00000000        0x8 build/Trustify/debug/_ext/1247632078/plib_sercom0_usart.o
 .text.SERCOM0_USART_SerialSetup
                0x00000000       0xfc build/Trustify/debug/_ext/1247632078/plib_sercom0_usart.o
 .text.SERCOM0_USART_ErrorGet
                0x00000000       0x30 build/Trustify/debug/_ext/1247632078/plib_sercom0_usart.o
 .text.SERCOM0_USART_TransmitterIsReady
                0x00000000       0x10 build/Trustify/debug/_ext/1247632078/plib_sercom0_usart.o
 .text.SERCOM0_USART_TransmitComplete
                0x00000000       0x10 build/Trustify/debug/_ext/1247632078/plib_sercom0_usart.o
 .text.SERCOM0_USART_WriteByte
                0x00000000       0x18 build/Trustify/debug/_ext/1247632078/plib_sercom0_usart.o
 .text.SERCOM0_USART_Read
                0x00000000       0x3c build/Trustify/debug/_ext/1247632078/plib_sercom0_usart.o
 .text.SERCOM0_USART_ReceiverIsReady
                0x00000000       0x10 build/Trustify/debug/_ext/1247632078/plib_sercom0_usart.o
 .text.SERCOM0_USART_ReadByte
                0x00000000        0xc build/Trustify/debug/_ext/1247632078/plib_sercom0_usart.o
 .text          0x00000000        0x0 build/Trustify/debug/_ext/1958438824/plib_pm.o
 .data          0x00000000        0x0 build/Trustify/debug/_ext/1958438824/plib_pm.o
 .bss           0x00000000        0x0 build/Trustify/debug/_ext/1958438824/plib_pm.o
 .text.PM_IdleModeEnter
                0x00000000       0x18 build/Trustify/debug/_ext/1958438824/plib_pm.o
 .text.PM_StandbyModeEnter
                0x00000000       0x18 build/Trustify/debug/_ext/1958438824/plib_pm.o
 .text.PM_OffModeEnter
                0x00000000       0x18 build/Trustify/debug/_ext/1958438824/plib_pm.o
 .text.PM_ConfigurePerformanceLevel
                0x00000000       0x3c build/Trustify/debug/_ext/1958438824/plib_pm.o
 .text          0x00000000        0x0 build/Trustify/debug/_ext/1060005641/interrupts.o
 .data          0x00000000        0x0 build/Trustify/debug/_ext/1060005641/interrupts.o
 .bss           0x00000000        0x0 build/Trustify/debug/_ext/1060005641/interrupts.o
 .text          0x00000000        0x0 build/Trustify/debug/_ext/1060005641/initialization.o
 .data          0x00000000        0x0 build/Trustify/debug/_ext/1060005641/initialization.o
 .bss           0x00000000        0x0 build/Trustify/debug/_ext/1060005641/initialization.o
 .text          0x00000000        0x0 build/Trustify/debug/_ext/1360937237/main.o
 .data          0x00000000        0x0 build/Trustify/debug/_ext/1360937237/main.o
 .bss           0x00000000        0x0 build/Trustify/debug/_ext/1360937237/main.o
 .text          0x00000000        0x0 build/Trustify/debug/_ext/1903470166/veneer.o
 .data          0x00000000        0x0 build/Trustify/debug/_ext/1903470166/veneer.o
 .bss           0x00000000        0x0 build/Trustify/debug/_ext/1903470166/veneer.o
 .debug_info    0x00000000      0x2bb build/Trustify/debug/_ext/1903470166/veneer.o
 .debug_abbrev  0x00000000       0x75 build/Trustify/debug/_ext/1903470166/veneer.o
 .debug_loc     0x00000000       0x62 build/Trustify/debug/_ext/1903470166/veneer.o
 .debug_aranges
                0x00000000       0x20 build/Trustify/debug/_ext/1903470166/veneer.o
 .debug_ranges  0x00000000       0x10 build/Trustify/debug/_ext/1903470166/veneer.o
 .debug_line    0x00000000       0x57 build/Trustify/debug/_ext/1903470166/veneer.o
 .debug_str     0x00000000        0x0 build/Trustify/debug/_ext/1903470166/veneer.o
 .comment       0x00000000       0x3d build/Trustify/debug/_ext/1903470166/veneer.o
 .debug_frame   0x00000000       0x28 build/Trustify/debug/_ext/1903470166/veneer.o
 .ARM.attributes
                0x00000000       0x32 build/Trustify/debug/_ext/1903470166/veneer.o
 .text          0x00000000        0x0 build/Trustify/debug/_ext/1903470166/secure.o
 .data          0x00000000        0x0 build/Trustify/debug/_ext/1903470166/secure.o
 .bss           0x00000000        0x0 build/Trustify/debug/_ext/1903470166/secure.o
 .debug_info    0x00000000      0xe81 build/Trustify/debug/_ext/1903470166/secure.o
 .debug_abbrev  0x00000000      0x1af build/Trustify/debug/_ext/1903470166/secure.o
 .debug_loc     0x00000000       0x21 build/Trustify/debug/_ext/1903470166/secure.o
 .debug_aranges
                0x00000000       0x20 build/Trustify/debug/_ext/1903470166/secure.o
 .debug_ranges  0x00000000       0x10 build/Trustify/debug/_ext/1903470166/secure.o
 .debug_line    0x00000000      0x135 build/Trustify/debug/_ext/1903470166/secure.o
 .debug_str     0x00000000        0xe build/Trustify/debug/_ext/1903470166/secure.o
 .comment       0x00000000       0x3d build/Trustify/debug/_ext/1903470166/secure.o
 .debug_frame   0x00000000       0x20 build/Trustify/debug/_ext/1903470166/secure.o
 .ARM.attributes
                0x00000000       0x32 build/Trustify/debug/_ext/1903470166/secure.o
 .text          0x00000000        0x0 build/Trustify/debug/_ext/874600305/xc32_monitor.o
 .data          0x00000000        0x0 build/Trustify/debug/_ext/874600305/xc32_monitor.o
 .bss           0x00000000        0x0 build/Trustify/debug/_ext/874600305/xc32_monitor.o
 .text._mon_getc
                0x00000000       0x1a build/Trustify/debug/_ext/874600305/xc32_monitor.o
 .text._mon_putc
                0x00000000       0x1a build/Trustify/debug/_ext/874600305/xc32_monitor.o
 .debug_info    0x00000000      0xf4d build/Trustify/debug/_ext/874600305/xc32_monitor.o
 .debug_abbrev  0x00000000      0x20a build/Trustify/debug/_ext/874600305/xc32_monitor.o
 .debug_loc     0x00000000       0x9f build/Trustify/debug/_ext/874600305/xc32_monitor.o
 .debug_aranges
                0x00000000       0x28 build/Trustify/debug/_ext/874600305/xc32_monitor.o
 .debug_ranges  0x00000000       0x18 build/Trustify/debug/_ext/874600305/xc32_monitor.o
 .debug_line    0x00000000      0x200 build/Trustify/debug/_ext/874600305/xc32_monitor.o
 .debug_str     0x00000000       0x35 build/Trustify/debug/_ext/874600305/xc32_monitor.o
 .comment       0x00000000       0x3d build/Trustify/debug/_ext/874600305/xc32_monitor.o
 .debug_frame   0x00000000       0x40 build/Trustify/debug/_ext/874600305/xc32_monitor.o
 .ARM.attributes
                0x00000000       0x32 build/Trustify/debug/_ext/874600305/xc32_monitor.o
 .text          0x00000000        0x0 build/Trustify/debug/_ext/1060005641/exceptions.o
 .data          0x00000000        0x0 build/Trustify/debug/_ext/1060005641/exceptions.o
 .bss           0x00000000        0x0 build/Trustify/debug/_ext/1060005641/exceptions.o
 .text.DebugMonitor_Handler
                0x00000000        0x4 build/Trustify/debug/_ext/1060005641/exceptions.o
 .text.MemoryManagement_Handler
                0x00000000        0x4 build/Trustify/debug/_ext/1060005641/exceptions.o
 .text.BusFault_Handler
                0x00000000        0x4 build/Trustify/debug/_ext/1060005641/exceptions.o
 .text.UsageFault_Handler
                0x00000000        0x4 build/Trustify/debug/_ext/1060005641/exceptions.o
 .text          0x00000000        0x0 build/Trustify/debug/_ext/864028644/plib_port.o
 .data          0x00000000        0x0 build/Trustify/debug/_ext/864028644/plib_port.o
 .bss           0x00000000        0x0 build/Trustify/debug/_ext/864028644/plib_port.o
 .text.PORT_GroupRead
                0x00000000        0x4 build/Trustify/debug/_ext/864028644/plib_port.o
 .text.PORT_GroupWrite
                0x00000000        0xc build/Trustify/debug/_ext/864028644/plib_port.o
 .text.PORT_GroupLatchRead
                0x00000000        0x4 build/Trustify/debug/_ext/864028644/plib_port.o
 .text.PORT_GroupSet
                0x00000000        0x4 build/Trustify/debug/_ext/864028644/plib_port.o
 .text.PORT_GroupClear
                0x00000000        0x4 build/Trustify/debug/_ext/864028644/plib_port.o
 .text.PORT_GroupToggle
                0x00000000        0x4 build/Trustify/debug/_ext/864028644/plib_port.o
 .text.PORT_GroupInputEnable
                0x00000000        0x4 build/Trustify/debug/_ext/864028644/plib_port.o
 .text.PORT_GroupOutputEnable
                0x00000000        0x4 build/Trustify/debug/_ext/864028644/plib_port.o
 .text          0x00000000        0x0 build/Trustify/debug/_ext/1027182637/plib_clock.o
 .data          0x00000000        0x0 build/Trustify/debug/_ext/1027182637/plib_clock.o
 .bss           0x00000000        0x0 build/Trustify/debug/_ext/1027182637/plib_clock.o
 .text          0x00000000        0x0 build/Trustify/debug/_ext/864081795/plib_nvic.o
 .data          0x00000000        0x0 build/Trustify/debug/_ext/864081795/plib_nvic.o
 .bss           0x00000000        0x0 build/Trustify/debug/_ext/864081795/plib_nvic.o
 .text          0x00000000        0x0 build/Trustify/debug/_ext/1060005641/startup_xc32.o
 .data          0x00000000        0x0 build/Trustify/debug/_ext/1060005641/startup_xc32.o
 .bss           0x00000000        0x0 build/Trustify/debug/_ext/1060005641/startup_xc32.o
 .text          0x00000000        0x0 build/Trustify/debug/_ext/1060005641/libc_syscalls.o
 .data          0x00000000        0x0 build/Trustify/debug/_ext/1060005641/libc_syscalls.o
 .bss           0x00000000        0x0 build/Trustify/debug/_ext/1060005641/libc_syscalls.o
 .text._exit    0x00000000        0x4 build/Trustify/debug/_ext/1060005641/libc_syscalls.o
 .debug_info    0x00000000      0xeb0 build/Trustify/debug/_ext/1060005641/libc_syscalls.o
 .debug_abbrev  0x00000000      0x1a1 build/Trustify/debug/_ext/1060005641/libc_syscalls.o
 .debug_aranges
                0x00000000       0x20 build/Trustify/debug/_ext/1060005641/libc_syscalls.o
 .debug_ranges  0x00000000       0x10 build/Trustify/debug/_ext/1060005641/libc_syscalls.o
 .debug_line    0x00000000      0x13f build/Trustify/debug/_ext/1060005641/libc_syscalls.o
 .debug_str     0x00000000        0xe build/Trustify/debug/_ext/1060005641/libc_syscalls.o
 .comment       0x00000000       0x3d build/Trustify/debug/_ext/1060005641/libc_syscalls.o
 .debug_frame   0x00000000       0x20 build/Trustify/debug/_ext/1060005641/libc_syscalls.o
 .ARM.attributes
                0x00000000       0x32 build/Trustify/debug/_ext/1060005641/libc_syscalls.o
 .text          0x00000000        0x0 build/Trustify/debug/_ext/1542791463/bsp.o
 .data          0x00000000        0x0 build/Trustify/debug/_ext/1542791463/bsp.o
 .bss           0x00000000        0x0 build/Trustify/debug/_ext/1542791463/bsp.o
 .text          0x00000000        0x0 c:/program files/microchip/xc32/v2.40/bin/bin/../../lib/gcc/pic32c/6.2.1/../../../../pic32c/lib/v8-m.base\libpic32c.a(data_init.o)
 .data          0x00000000        0x0 c:/program files/microchip/xc32/v2.40/bin/bin/../../lib/gcc/pic32c/6.2.1/../../../../pic32c/lib/v8-m.base\libpic32c.a(data_init.o)
 .bss           0x00000000        0x0 c:/program files/microchip/xc32/v2.40/bin/bin/../../lib/gcc/pic32c/6.2.1/../../../../pic32c/lib/v8-m.base\libpic32c.a(data_init.o)
 .data          0x00000000        0x0 c:/program files/microchip/xc32/v2.40/bin/bin/../../lib/gcc/pic32c/6.2.1/v8-m.base\libgcc.a(cmse_nonsecure_call.o)
 .bss           0x00000000        0x0 c:/program files/microchip/xc32/v2.40/bin/bin/../../lib/gcc/pic32c/6.2.1/v8-m.base\libgcc.a(cmse_nonsecure_call.o)
 .text          0x00000000       0x40 c:/program files/microchip/xc32/v2.40/bin/bin/../../lib/gcc/pic32c/6.2.1/v8-m.base\libgcc.a(_aeabi_uldivmod.o)
 .data          0x00000000        0x0 c:/program files/microchip/xc32/v2.40/bin/bin/../../lib/gcc/pic32c/6.2.1/v8-m.base\libgcc.a(_aeabi_uldivmod.o)
 .bss           0x00000000        0x0 c:/program files/microchip/xc32/v2.40/bin/bin/../../lib/gcc/pic32c/6.2.1/v8-m.base\libgcc.a(_aeabi_uldivmod.o)
 .debug_line    0x00000000       0xa7 c:/program files/microchip/xc32/v2.40/bin/bin/../../lib/gcc/pic32c/6.2.1/v8-m.base\libgcc.a(_aeabi_uldivmod.o)
 .debug_info    0x00000000       0xf8 c:/program files/microchip/xc32/v2.40/bin/bin/../../lib/gcc/pic32c/6.2.1/v8-m.base\libgcc.a(_aeabi_uldivmod.o)
 .debug_abbrev  0x00000000       0x14 c:/program files/microchip/xc32/v2.40/bin/bin/../../lib/gcc/pic32c/6.2.1/v8-m.base\libgcc.a(_aeabi_uldivmod.o)
 .debug_aranges
                0x00000000       0x20 c:/program files/microchip/xc32/v2.40/bin/bin/../../lib/gcc/pic32c/6.2.1/v8-m.base\libgcc.a(_aeabi_uldivmod.o)
 .ARM.attributes
                0x00000000       0x22 c:/program files/microchip/xc32/v2.40/bin/bin/../../lib/gcc/pic32c/6.2.1/v8-m.base\libgcc.a(_aeabi_uldivmod.o)
 .text          0x00000000       0x42 c:/program files/microchip/xc32/v2.40/bin/bin/../../lib/gcc/pic32c/6.2.1/v8-m.base\libgcc.a(_muldi3.o)
 .data          0x00000000        0x0 c:/program files/microchip/xc32/v2.40/bin/bin/../../lib/gcc/pic32c/6.2.1/v8-m.base\libgcc.a(_muldi3.o)
 .bss           0x00000000        0x0 c:/program files/microchip/xc32/v2.40/bin/bin/../../lib/gcc/pic32c/6.2.1/v8-m.base\libgcc.a(_muldi3.o)
 .debug_info    0x00000000     0x13fb c:/program files/microchip/xc32/v2.40/bin/bin/../../lib/gcc/pic32c/6.2.1/v8-m.base\libgcc.a(_muldi3.o)
 .debug_abbrev  0x00000000      0x176 c:/program files/microchip/xc32/v2.40/bin/bin/../../lib/gcc/pic32c/6.2.1/v8-m.base\libgcc.a(_muldi3.o)
 .debug_loc     0x00000000      0x164 c:/program files/microchip/xc32/v2.40/bin/bin/../../lib/gcc/pic32c/6.2.1/v8-m.base\libgcc.a(_muldi3.o)
 .debug_aranges
                0x00000000       0x20 c:/program files/microchip/xc32/v2.40/bin/bin/../../lib/gcc/pic32c/6.2.1/v8-m.base\libgcc.a(_muldi3.o)
 .debug_ranges  0x00000000       0x28 c:/program files/microchip/xc32/v2.40/bin/bin/../../lib/gcc/pic32c/6.2.1/v8-m.base\libgcc.a(_muldi3.o)
 .debug_line    0x00000000      0x299 c:/program files/microchip/xc32/v2.40/bin/bin/../../lib/gcc/pic32c/6.2.1/v8-m.base\libgcc.a(_muldi3.o)
 .debug_str     0x00000000        0x0 c:/program files/microchip/xc32/v2.40/bin/bin/../../lib/gcc/pic32c/6.2.1/v8-m.base\libgcc.a(_muldi3.o)
 .comment       0x00000000       0x3d c:/program files/microchip/xc32/v2.40/bin/bin/../../lib/gcc/pic32c/6.2.1/v8-m.base\libgcc.a(_muldi3.o)
 .debug_frame   0x00000000       0x34 c:/program files/microchip/xc32/v2.40/bin/bin/../../lib/gcc/pic32c/6.2.1/v8-m.base\libgcc.a(_muldi3.o)
 .ARM.attributes
                0x00000000       0x30 c:/program files/microchip/xc32/v2.40/bin/bin/../../lib/gcc/pic32c/6.2.1/v8-m.base\libgcc.a(_muldi3.o)
 .text          0x00000000      0x32a c:/program files/microchip/xc32/v2.40/bin/bin/../../lib/gcc/pic32c/6.2.1/v8-m.base\libgcc.a(_udivmoddi4.o)
 .data          0x00000000        0x0 c:/program files/microchip/xc32/v2.40/bin/bin/../../lib/gcc/pic32c/6.2.1/v8-m.base\libgcc.a(_udivmoddi4.o)
 .bss           0x00000000        0x0 c:/program files/microchip/xc32/v2.40/bin/bin/../../lib/gcc/pic32c/6.2.1/v8-m.base\libgcc.a(_udivmoddi4.o)
 .ARM.extab     0x00000000        0x0 c:/program files/microchip/xc32/v2.40/bin/bin/../../lib/gcc/pic32c/6.2.1/v8-m.base\libgcc.a(_udivmoddi4.o)
 .ARM.exidx     0x00000000        0x8 c:/program files/microchip/xc32/v2.40/bin/bin/../../lib/gcc/pic32c/6.2.1/v8-m.base\libgcc.a(_udivmoddi4.o)
 .debug_info    0x00000000     0x172e c:/program files/microchip/xc32/v2.40/bin/bin/../../lib/gcc/pic32c/6.2.1/v8-m.base\libgcc.a(_udivmoddi4.o)
 .debug_abbrev  0x00000000      0x195 c:/program files/microchip/xc32/v2.40/bin/bin/../../lib/gcc/pic32c/6.2.1/v8-m.base\libgcc.a(_udivmoddi4.o)
 .debug_loc     0x00000000      0xe18 c:/program files/microchip/xc32/v2.40/bin/bin/../../lib/gcc/pic32c/6.2.1/v8-m.base\libgcc.a(_udivmoddi4.o)
 .debug_aranges
                0x00000000       0x20 c:/program files/microchip/xc32/v2.40/bin/bin/../../lib/gcc/pic32c/6.2.1/v8-m.base\libgcc.a(_udivmoddi4.o)
 .debug_ranges  0x00000000       0xa0 c:/program files/microchip/xc32/v2.40/bin/bin/../../lib/gcc/pic32c/6.2.1/v8-m.base\libgcc.a(_udivmoddi4.o)
 .debug_line    0x00000000      0x335 c:/program files/microchip/xc32/v2.40/bin/bin/../../lib/gcc/pic32c/6.2.1/v8-m.base\libgcc.a(_udivmoddi4.o)
 .debug_str     0x00000000        0x0 c:/program files/microchip/xc32/v2.40/bin/bin/../../lib/gcc/pic32c/6.2.1/v8-m.base\libgcc.a(_udivmoddi4.o)
 .comment       0x00000000       0x3d c:/program files/microchip/xc32/v2.40/bin/bin/../../lib/gcc/pic32c/6.2.1/v8-m.base\libgcc.a(_udivmoddi4.o)
 .debug_frame   0x00000000       0x30 c:/program files/microchip/xc32/v2.40/bin/bin/../../lib/gcc/pic32c/6.2.1/v8-m.base\libgcc.a(_udivmoddi4.o)
 .ARM.attributes
                0x00000000       0x30 c:/program files/microchip/xc32/v2.40/bin/bin/../../lib/gcc/pic32c/6.2.1/v8-m.base\libgcc.a(_udivmoddi4.o)
 .text          0x00000000        0x4 c:/program files/microchip/xc32/v2.40/bin/bin/../../lib/gcc/pic32c/6.2.1/v8-m.base\libgcc.a(_dvmd_tls.o)
 .data          0x00000000        0x0 c:/program files/microchip/xc32/v2.40/bin/bin/../../lib/gcc/pic32c/6.2.1/v8-m.base\libgcc.a(_dvmd_tls.o)
 .bss           0x00000000        0x0 c:/program files/microchip/xc32/v2.40/bin/bin/../../lib/gcc/pic32c/6.2.1/v8-m.base\libgcc.a(_dvmd_tls.o)
 .debug_line    0x00000000       0x9c c:/program files/microchip/xc32/v2.40/bin/bin/../../lib/gcc/pic32c/6.2.1/v8-m.base\libgcc.a(_dvmd_tls.o)
 .debug_info    0x00000000       0xf8 c:/program files/microchip/xc32/v2.40/bin/bin/../../lib/gcc/pic32c/6.2.1/v8-m.base\libgcc.a(_dvmd_tls.o)
 .debug_abbrev  0x00000000       0x14 c:/program files/microchip/xc32/v2.40/bin/bin/../../lib/gcc/pic32c/6.2.1/v8-m.base\libgcc.a(_dvmd_tls.o)
 .debug_aranges
                0x00000000       0x20 c:/program files/microchip/xc32/v2.40/bin/bin/../../lib/gcc/pic32c/6.2.1/v8-m.base\libgcc.a(_dvmd_tls.o)
 .ARM.attributes
                0x00000000       0x22 c:/program files/microchip/xc32/v2.40/bin/bin/../../lib/gcc/pic32c/6.2.1/v8-m.base\libgcc.a(_dvmd_tls.o)
 .text          0x00000000       0x3c c:/program files/microchip/xc32/v2.40/bin/bin/../../lib/gcc/pic32c/6.2.1/v8-m.base\libgcc.a(_clzsi2.o)
 .data          0x00000000        0x0 c:/program files/microchip/xc32/v2.40/bin/bin/../../lib/gcc/pic32c/6.2.1/v8-m.base\libgcc.a(_clzsi2.o)
 .bss           0x00000000        0x0 c:/program files/microchip/xc32/v2.40/bin/bin/../../lib/gcc/pic32c/6.2.1/v8-m.base\libgcc.a(_clzsi2.o)
 .debug_line    0x00000000       0xb0 c:/program files/microchip/xc32/v2.40/bin/bin/../../lib/gcc/pic32c/6.2.1/v8-m.base\libgcc.a(_clzsi2.o)
 .debug_info    0x00000000       0xf8 c:/program files/microchip/xc32/v2.40/bin/bin/../../lib/gcc/pic32c/6.2.1/v8-m.base\libgcc.a(_clzsi2.o)
 .debug_abbrev  0x00000000       0x14 c:/program files/microchip/xc32/v2.40/bin/bin/../../lib/gcc/pic32c/6.2.1/v8-m.base\libgcc.a(_clzsi2.o)
 .debug_aranges
                0x00000000       0x20 c:/program files/microchip/xc32/v2.40/bin/bin/../../lib/gcc/pic32c/6.2.1/v8-m.base\libgcc.a(_clzsi2.o)
 .ARM.attributes
                0x00000000       0x22 c:/program files/microchip/xc32/v2.40/bin/bin/../../lib/gcc/pic32c/6.2.1/v8-m.base\libgcc.a(_clzsi2.o)
 .text          0x00000000        0x0 c:/program files/microchip/xc32/v2.40/bin/bin/../../lib/gcc/pic32c/6.2.1/../../../../pic32c/lib/v8-m.base\libg_nano.a(lib_a-init.o)
 .data          0x00000000        0x0 c:/program files/microchip/xc32/v2.40/bin/bin/../../lib/gcc/pic32c/6.2.1/../../../../pic32c/lib/v8-m.base\libg_nano.a(lib_a-init.o)
 .bss           0x00000000        0x0 c:/program files/microchip/xc32/v2.40/bin/bin/../../lib/gcc/pic32c/6.2.1/../../../../pic32c/lib/v8-m.base\libg_nano.a(lib_a-init.o)
 .text          0x00000000        0x0 c:/program files/microchip/xc32/v2.40/bin/bin/../../lib/gcc/pic32c/6.2.1/../../../../pic32c/lib/v8-m.base\libg_nano.a(lib_a-memcpy-stub.o)
 .data          0x00000000        0x0 c:/program files/microchip/xc32/v2.40/bin/bin/../../lib/gcc/pic32c/6.2.1/../../../../pic32c/lib/v8-m.base\libg_nano.a(lib_a-memcpy-stub.o)
 .bss           0x00000000        0x0 c:/program files/microchip/xc32/v2.40/bin/bin/../../lib/gcc/pic32c/6.2.1/../../../../pic32c/lib/v8-m.base\libg_nano.a(lib_a-memcpy-stub.o)
 .text.memcpy   0x00000000       0x12 c:/program files/microchip/xc32/v2.40/bin/bin/../../lib/gcc/pic32c/6.2.1/../../../../pic32c/lib/v8-m.base\libg_nano.a(lib_a-memcpy-stub.o)
 .debug_info    0x00000000      0xdfb c:/program files/microchip/xc32/v2.40/bin/bin/../../lib/gcc/pic32c/6.2.1/../../../../pic32c/lib/v8-m.base\libg_nano.a(lib_a-memcpy-stub.o)
 .debug_abbrev  0x00000000      0x17c c:/program files/microchip/xc32/v2.40/bin/bin/../../lib/gcc/pic32c/6.2.1/../../../../pic32c/lib/v8-m.base\libg_nano.a(lib_a-memcpy-stub.o)
 .debug_loc     0x00000000       0xde c:/program files/microchip/xc32/v2.40/bin/bin/../../lib/gcc/pic32c/6.2.1/../../../../pic32c/lib/v8-m.base\libg_nano.a(lib_a-memcpy-stub.o)
 .debug_aranges
                0x00000000       0x20 c:/program files/microchip/xc32/v2.40/bin/bin/../../lib/gcc/pic32c/6.2.1/../../../../pic32c/lib/v8-m.base\libg_nano.a(lib_a-memcpy-stub.o)
 .debug_ranges  0x00000000       0x10 c:/program files/microchip/xc32/v2.40/bin/bin/../../lib/gcc/pic32c/6.2.1/../../../../pic32c/lib/v8-m.base\libg_nano.a(lib_a-memcpy-stub.o)
 .debug_line    0x00000000      0x21c c:/program files/microchip/xc32/v2.40/bin/bin/../../lib/gcc/pic32c/6.2.1/../../../../pic32c/lib/v8-m.base\libg_nano.a(lib_a-memcpy-stub.o)
 .debug_str     0x00000000        0x9 c:/program files/microchip/xc32/v2.40/bin/bin/../../lib/gcc/pic32c/6.2.1/../../../../pic32c/lib/v8-m.base\libg_nano.a(lib_a-memcpy-stub.o)
 .comment       0x00000000       0x3d c:/program files/microchip/xc32/v2.40/bin/bin/../../lib/gcc/pic32c/6.2.1/../../../../pic32c/lib/v8-m.base\libg_nano.a(lib_a-memcpy-stub.o)
 .debug_frame   0x00000000       0x28 c:/program files/microchip/xc32/v2.40/bin/bin/../../lib/gcc/pic32c/6.2.1/../../../../pic32c/lib/v8-m.base\libg_nano.a(lib_a-memcpy-stub.o)
 .ARM.attributes
                0x00000000       0x30 c:/program files/microchip/xc32/v2.40/bin/bin/../../lib/gcc/pic32c/6.2.1/../../../../pic32c/lib/v8-m.base\libg_nano.a(lib_a-memcpy-stub.o)
 .text          0x00000000        0x0 c:/program files/microchip/xc32/v2.40/bin/bin/../../lib/gcc/pic32c/6.2.1/v8-m.base/crtend.o
 .data          0x00000000        0x0 c:/program files/microchip/xc32/v2.40/bin/bin/../../lib/gcc/pic32c/6.2.1/v8-m.base/crtend.o
 .bss           0x00000000        0x0 c:/program files/microchip/xc32/v2.40/bin/bin/../../lib/gcc/pic32c/6.2.1/v8-m.base/crtend.o
 .eh_frame      0x00000000        0x4 c:/program files/microchip/xc32/v2.40/bin/bin/../../lib/gcc/pic32c/6.2.1/v8-m.base/crtend.o
 .comment       0x00000000       0x3d c:/program files/microchip/xc32/v2.40/bin/bin/../../lib/gcc/pic32c/6.2.1/v8-m.base/crtend.o
 .ARM.attributes
                0x00000000       0x30 c:/program files/microchip/xc32/v2.40/bin/bin/../../lib/gcc/pic32c/6.2.1/v8-m.base/crtend.o
 .text          0x00000000        0x0 c:/program files/microchip/xc32/v2.40/bin/bin/../../lib/gcc/pic32c/6.2.1/v8-m.base/crtn.o
 .data          0x00000000        0x0 c:/program files/microchip/xc32/v2.40/bin/bin/../../lib/gcc/pic32c/6.2.1/v8-m.base/crtn.o
 .bss           0x00000000        0x0 c:/program files/microchip/xc32/v2.40/bin/bin/../../lib/gcc/pic32c/6.2.1/v8-m.base/crtn.o

Memory Configuration

Name             Origin             Length             Attributes
rom              0x00000000         0x00008000         xrl
rom_nsc          0x00007e00         0x00000200         xrl
ram              0x20000000         0x00002000         xw !r
config_00804000  0x00804000         0x00000004
config_00804004  0x00804004         0x00000004
config_00804008  0x00804008         0x00000004
config_0080400C  0x0080400c         0x00000004
config_00804010  0x00804010         0x00000004
config_00804014  0x00804014         0x00000004
config_00804018  0x00804018         0x00000004
config_0080401C  0x0080401c         0x00000004
config_0080C000  0x0080c000         0x00000004
config_0080C004  0x0080c004         0x00000004
config_0080C008  0x0080c008         0x00000004
config_0080C010  0x0080c010         0x00000004
config_0080C014  0x0080c014         0x00000004
config_0080C018  0x0080c018         0x00000004
config_0080C01C  0x0080c01c         0x00000004
config_0080C020  0x0080c020         0x00000004
config_0080C024  0x0080c024         0x00000004
config_0080C028  0x0080c028         0x00000004
config_0080C02C  0x0080c02c         0x00000004
config_0080C030  0x0080c030         0x00000004
config_0080C034  0x0080c034         0x00000004
config_0080C038  0x0080c038         0x00000004
config_0080C03C  0x0080c03c         0x00000004
config_0080C040  0x0080c040         0x00000004
config_0080C044  0x0080c044         0x00000004
config_0080C048  0x0080c048         0x00000004
config_0080C04C  0x0080c04c         0x00000004
config_0080C050  0x0080c050         0x00000004
config_0080C054  0x0080c054         0x00000004
config_0080C058  0x0080c058         0x00000004
config_0080C05C  0x0080c05c         0x00000004
config_0080C060  0x0080c060         0x00000004
config_0080C064  0x0080c064         0x00000004
config_0080C068  0x0080c068         0x00000004
config_0080C06C  0x0080c06c         0x00000004
config_0080C0E0  0x0080c0e0         0x00000004
config_0080C0E4  0x0080c0e4         0x00000004
config_0080C0E8  0x0080c0e8         0x00000004
config_0080C0EC  0x0080c0ec         0x00000004
config_0080C0F0  0x0080c0f0         0x00000004
config_0080C0F4  0x0080c0f4         0x00000004
config_0080C0F8  0x0080c0f8         0x00000004
config_0080C0FC  0x0080c0fc         0x00000004
*default*        0x00000000         0xffffffff

Linker script and memory map

LOAD c:/program files/microchip/xc32/v2.40/bin/bin/../../lib/gcc/pic32c/6.2.1/v8-m.base/crti.o
LOAD c:/program files/microchip/xc32/v2.40/bin/bin/../../lib/gcc/pic32c/6.2.1/v8-m.base/crtbegin.o
LOAD build/Trustify/debug/_ext/2117940715/plib_nvmctrl.o
LOAD build/Trustify/debug/_ext/1025033151/plib_evsys.o
LOAD build/Trustify/debug/_ext/1247632078/plib_sercom0_usart.o
LOAD build/Trustify/debug/_ext/1958438824/plib_pm.o
LOAD build/Trustify/debug/_ext/1060005641/interrupts.o
LOAD build/Trustify/debug/_ext/1060005641/initialization.o
LOAD build/Trustify/debug/_ext/1360937237/main.o
LOAD build/Trustify/debug/_ext/1903470166/veneer.o
LOAD build/Trustify/debug/_ext/1903470166/secure.o
LOAD build/Trustify/debug/_ext/874600305/xc32_monitor.o
LOAD build/Trustify/debug/_ext/1060005641/exceptions.o
LOAD build/Trustify/debug/_ext/864028644/plib_port.o
LOAD build/Trustify/debug/_ext/1027182637/plib_clock.o
LOAD build/Trustify/debug/_ext/864081795/plib_nvic.o
LOAD build/Trustify/debug/_ext/1060005641/startup_xc32.o
LOAD build/Trustify/debug/_ext/1060005641/libc_syscalls.o
LOAD build/Trustify/debug/_ext/1542791463/bsp.o
                0x00000001                __MPLAB_BUILD = 0x1
                0x00000001                __ICD2RAM = 0x1
                0x00000001                __MPLAB_DEBUG = 0x1
                0x00000001                __DEBUG = 0x1
                0x00000000                _min_heap_size = 0x0
START GROUP
LOAD c:/program files/microchip/xc32/v2.40/bin/bin/../../lib/gcc/pic32c/6.2.1/../../../../pic32c/lib/v8-m.base\libpic32c.a
LOAD c:/program files/microchip/xc32/v2.40/bin/bin/../../lib/gcc/pic32c/6.2.1/v8-m.base\libgcc.a
LOAD c:/program files/microchip/xc32/v2.40/bin/bin/../../lib/gcc/pic32c/6.2.1/../../../../pic32c/lib/v8-m.base\libg_nano.a
LOAD c:/program files/microchip/xc32/v2.40/bin/bin/../../lib/gcc/pic32c/6.2.1/../../../../pic32c/lib/v8-m.base\libm_nano.a
LOAD c:/program files/microchip/xc32/v2.40/bin/bin/../../lib/gcc/pic32c/6.2.1/../../../../pic32c/lib/v8-m.base\libc_nano.a
END GROUP
LOAD c:/program files/microchip/xc32/v2.40/bin/bin/../../lib/gcc/pic32c/6.2.1/v8-m.base/crtend.o
LOAD c:/program files/microchip/xc32/v2.40/bin/bin/../../lib/gcc/pic32c/6.2.1/v8-m.base/crtn.o
                0x00008000                __rom_end = (ORIGIN (rom) + LENGTH (rom))
                0x00008000                __rom_nsc_end = (ORIGIN (rom_nsc) + LENGTH (rom_nsc))
                0x20002000                __ram_end = (ORIGIN (ram) + LENGTH (ram))

.config_00804000
                0x00804000        0x4
 *(.config_00804000)
 .config_00804000
                0x00804000        0x4 build/Trustify/debug/_ext/1060005641/initialization.o

.config_00804004
                0x00804004        0x4
 *(.config_00804004)
 .config_00804004
                0x00804004        0x4 build/Trustify/debug/_ext/1060005641/initialization.o

.config_00804008
                0x00804008        0x4
 *(.config_00804008)
 .config_00804008
                0x00804008        0x4 build/Trustify/debug/_ext/1060005641/initialization.o

.config_0080400C
                0x0080400c        0x4
 *(.config_0080400C)
 .config_0080400C
                0x0080400c        0x4 build/Trustify/debug/_ext/1060005641/initialization.o

.config_00804010
                0x00804010        0x4
 *(.config_00804010)
 .config_00804010
                0x00804010        0x4 build/Trustify/debug/_ext/1060005641/initialization.o

.config_00804014
                0x00804014        0x4
 *(.config_00804014)
 .config_00804014
                0x00804014        0x4 build/Trustify/debug/_ext/1060005641/initialization.o

.config_00804018
                0x00804018        0x4
 *(.config_00804018)
 .config_00804018
                0x00804018        0x4 build/Trustify/debug/_ext/1060005641/initialization.o

.config_0080401C
                0x0080401c        0x4
 *(.config_0080401C)
 .config_0080401C
                0x0080401c        0x4 build/Trustify/debug/_ext/1060005641/initialization.o

.config_0080C000
                0x0080c000        0x4
 *(.config_0080C000)
 .config_0080C000
                0x0080c000        0x4 build/Trustify/debug/_ext/1060005641/initialization.o

.config_0080C004
                0x0080c004        0x4
 *(.config_0080C004)
 .config_0080C004
                0x0080c004        0x4 build/Trustify/debug/_ext/1060005641/initialization.o

.config_0080C008
                0x0080c008        0x4
 *(.config_0080C008)
 .config_0080C008
                0x0080c008        0x4 build/Trustify/debug/_ext/1060005641/initialization.o

.config_0080C010
                0x0080c010        0x4
 *(.config_0080C010)
 .config_0080C010
                0x0080c010        0x4 build/Trustify/debug/_ext/1060005641/initialization.o

.config_0080C014
                0x0080c014        0x4
 *(.config_0080C014)
 .config_0080C014
                0x0080c014        0x4 build/Trustify/debug/_ext/1060005641/initialization.o

.config_0080C018
                0x0080c018        0x4
 *(.config_0080C018)
 .config_0080C018
                0x0080c018        0x4 build/Trustify/debug/_ext/1060005641/initialization.o

.config_0080C01C
                0x0080c01c        0x4
 *(.config_0080C01C)
 .config_0080C01C
                0x0080c01c        0x4 build/Trustify/debug/_ext/1060005641/initialization.o

.config_0080C020
                0x0080c020        0x4
 *(.config_0080C020)
 .config_0080C020
                0x0080c020        0x4 build/Trustify/debug/_ext/1060005641/initialization.o

.config_0080C024
                0x0080c024        0x4
 *(.config_0080C024)
 .config_0080C024
                0x0080c024        0x4 build/Trustify/debug/_ext/1060005641/initialization.o

.config_0080C028
                0x0080c028        0x4
 *(.config_0080C028)
 .config_0080C028
                0x0080c028        0x4 build/Trustify/debug/_ext/1060005641/initialization.o

.config_0080C02C
                0x0080c02c        0x4
 *(.config_0080C02C)
 .config_0080C02C
                0x0080c02c        0x4 build/Trustify/debug/_ext/1060005641/initialization.o

.config_0080C030
                0x0080c030        0x4
 *(.config_0080C030)
 .config_0080C030
                0x0080c030        0x4 build/Trustify/debug/_ext/1060005641/initialization.o

.config_0080C034
                0x0080c034        0x4
 *(.config_0080C034)
 .config_0080C034
                0x0080c034        0x4 build/Trustify/debug/_ext/1060005641/initialization.o

.config_0080C038
                0x0080c038        0x4
 *(.config_0080C038)
 .config_0080C038
                0x0080c038        0x4 build/Trustify/debug/_ext/1060005641/initialization.o

.config_0080C03C
                0x0080c03c        0x4
 *(.config_0080C03C)
 .config_0080C03C
                0x0080c03c        0x4 build/Trustify/debug/_ext/1060005641/initialization.o

.config_0080C040
                0x0080c040        0x4
 *(.config_0080C040)
 .config_0080C040
                0x0080c040        0x4 build/Trustify/debug/_ext/1060005641/initialization.o

.config_0080C044
                0x0080c044        0x4
 *(.config_0080C044)
 .config_0080C044
                0x0080c044        0x4 build/Trustify/debug/_ext/1060005641/initialization.o

.config_0080C048
                0x0080c048        0x4
 *(.config_0080C048)
 .config_0080C048
                0x0080c048        0x4 build/Trustify/debug/_ext/1060005641/initialization.o

.config_0080C04C
                0x0080c04c        0x4
 *(.config_0080C04C)
 .config_0080C04C
                0x0080c04c        0x4 build/Trustify/debug/_ext/1060005641/initialization.o

.config_0080C050
                0x0080c050        0x4
 *(.config_0080C050)
 .config_0080C050
                0x0080c050        0x4 build/Trustify/debug/_ext/1060005641/initialization.o

.config_0080C054
                0x0080c054        0x4
 *(.config_0080C054)
 .config_0080C054
                0x0080c054        0x4 build/Trustify/debug/_ext/1060005641/initialization.o

.config_0080C058
                0x0080c058        0x4
 *(.config_0080C058)
 .config_0080C058
                0x0080c058        0x4 build/Trustify/debug/_ext/1060005641/initialization.o

.config_0080C05C
                0x0080c05c        0x4
 *(.config_0080C05C)
 .config_0080C05C
                0x0080c05c        0x4 build/Trustify/debug/_ext/1060005641/initialization.o

.config_0080C060
                0x0080c060        0x4
 *(.config_0080C060)
 .config_0080C060
                0x0080c060        0x4 build/Trustify/debug/_ext/1060005641/initialization.o

.config_0080C064
                0x0080c064        0x4
 *(.config_0080C064)
 .config_0080C064
                0x0080c064        0x4 build/Trustify/debug/_ext/1060005641/initialization.o

.config_0080C068
                0x0080c068        0x4
 *(.config_0080C068)
 .config_0080C068
                0x0080c068        0x4 build/Trustify/debug/_ext/1060005641/initialization.o

.config_0080C06C
                0x0080c06c        0x4
 *(.config_0080C06C)
 .config_0080C06C
                0x0080c06c        0x4 build/Trustify/debug/_ext/1060005641/initialization.o

.config_0080C0E0
                0x0080c0e0        0x4
 *(.config_0080C0E0)
 .config_0080C0E0
                0x0080c0e0        0x4 build/Trustify/debug/_ext/1060005641/initialization.o

.config_0080C0E4
                0x0080c0e4        0x4
 *(.config_0080C0E4)
 .config_0080C0E4
                0x0080c0e4        0x4 build/Trustify/debug/_ext/1060005641/initialization.o

.config_0080C0E8
                0x0080c0e8        0x4
 *(.config_0080C0E8)
 .config_0080C0E8
                0x0080c0e8        0x4 build/Trustify/debug/_ext/1060005641/initialization.o

.config_0080C0EC
                0x0080c0ec        0x4
 *(.config_0080C0EC)
 .config_0080C0EC
                0x0080c0ec        0x4 build/Trustify/debug/_ext/1060005641/initialization.o

.config_0080C0F0
                0x0080c0f0        0x4
 *(.config_0080C0F0)
 .config_0080C0F0
                0x0080c0f0        0x4 build/Trustify/debug/_ext/1060005641/initialization.o

.config_0080C0F4
                0x0080c0f4        0x4
 *(.config_0080C0F4)
 .config_0080C0F4
                0x0080c0f4        0x4 build/Trustify/debug/_ext/1060005641/initialization.o

.config_0080C0F8
                0x0080c0f8        0x4
 *(.config_0080C0F8)
 .config_0080C0F8
                0x0080c0f8        0x4 build/Trustify/debug/_ext/1060005641/initialization.o

.config_0080C0FC
                0x0080c0fc        0x4
 *(.config_0080C0FC)
 .config_0080C0FC
                0x0080c0fc        0x4 build/Trustify/debug/_ext/1060005641/initialization.o

.vectors        0x00000000       0xf4
                0x00000000                . = ALIGN (0x4)
                0x00000000                _sfixed = .
 *(.vectors .vectors.* .vectors_default .vectors_default.*)
 .vectors       0x00000000       0xf4 build/Trustify/debug/_ext/1060005641/interrupts.o
                0x00000000                exception_table
 *(.isr_vector)
 *(.reset*)
 *(.after_vectors)

.text           0x000000f4       0x20
                0x000000f4                . = ALIGN (0x4)
 *(.glue_7t)
 .glue_7t       0x000000f4        0x0 linker stubs
 *(.glue_7)
 .glue_7        0x000000f4        0x0 linker stubs
 *(.gnu.linkonce.r.*)
 *(.ARM.extab* .gnu.linkonce.armextab.*)
                0x000000f4                . = ALIGN (0x4)
 *(.init)
 .init          0x000000f4        0x4 c:/program files/microchip/xc32/v2.40/bin/bin/../../lib/gcc/pic32c/6.2.1/v8-m.base/crti.o
                0x000000f4                _init
 .init          0x000000f8        0x8 c:/program files/microchip/xc32/v2.40/bin/bin/../../lib/gcc/pic32c/6.2.1/v8-m.base/crtn.o
                0x00000100                . = ALIGN (0x4)
                0x00000100                __preinit_array_start = .
 *(.preinit_array)
                0x00000100                __preinit_array_end = .
                0x00000100                . = ALIGN (0x4)
                0x00000100                __init_array_start = .
 *(SORT(.init_array.*))
 *(.init_array)
 .init_array    0x00000100        0x4 c:/program files/microchip/xc32/v2.40/bin/bin/../../lib/gcc/pic32c/6.2.1/v8-m.base/crtbegin.o
                0x00000104                __init_array_end = .
                0x00000104                . = ALIGN (0x4)
 *crtbegin.o(.ctors)
 *(EXCLUDE_FILE(*crtend.o) .ctors)
 *(SORT(.ctors.*))
 *crtend.o(.ctors)
                0x00000104                . = ALIGN (0x4)
 *(.fini)
 .fini          0x00000104        0x4 c:/program files/microchip/xc32/v2.40/bin/bin/../../lib/gcc/pic32c/6.2.1/v8-m.base/crti.o
                0x00000104                _fini
 .fini          0x00000108        0x8 c:/program files/microchip/xc32/v2.40/bin/bin/../../lib/gcc/pic32c/6.2.1/v8-m.base/crtn.o
                0x00000110                . = ALIGN (0x4)
                0x00000110                __fini_array_start = .
 *(.fini_array)
 .fini_array    0x00000110        0x4 c:/program files/microchip/xc32/v2.40/bin/bin/../../lib/gcc/pic32c/6.2.1/v8-m.base/crtbegin.o
 *(SORT(.fini_array.*))
                0x00000114                __fini_array_end = .
 *crtbegin.o(.dtors)
 *(EXCLUDE_FILE(*crtend.o) .dtors)
 *(SORT(.dtors.*))
 *crtend.o(.dtors)
                0x00000114                . = ALIGN (0x4)
                0x00000114                _efixed = .
                [!provide]                PROVIDE (__exidx_start, .)

.ARM.exidx
 *(.ARM.exidx* .gnu.linkonce.armexidx.*)
                [!provide]                PROVIDE (__exidx_end, .)
                0x00000114                . = ALIGN (0x4)
                0x00000114                _etext = .
                0x00000114                . = ALIGN (0x4)

.gnu.sgstubs    0x00007e00        0x8
                0x00007e00                _ssgstubs = .
 .gnu.sgstubs.__stub
                0x00007e00        0x8 linker stubs
                0x00007e00                secure_add

.bss            0x20000000        0x0
                0x20000000                . = ALIGN (0x4)
                0x20000000                __bss_start__ = .
                0x20000000                _sbss = .
                0x20000000                _szero = .
 *(COMMON)
                0x20000000                . = ALIGN (0x4)
                0x20000000                __bss_end__ = .
                0x20000000                _ebss = .
                0x20000000                _ezero = .
                0x20000000                . = ALIGN (0x4)
                0x20000000                _end = .
                0x20001fff                _ram_end_ = ((ORIGIN (ram) + LENGTH (ram)) - 0x1)
OUTPUT(dist/Trustify/debug/TrustZone_Bringup_Secure.X.debug.elf elf32-littlearm)
LOAD stack
LOAD data_init

.ARM.attributes
                0x00000000       0x2c
 .ARM.attributes
                0x00000000       0x22 c:/program files/microchip/xc32/v2.40/bin/bin/../../lib/gcc/pic32c/6.2.1/v8-m.base/crti.o
 .ARM.attributes
                0x00000022       0x30 c:/program files/microchip/xc32/v2.40/bin/bin/../../lib/gcc/pic32c/6.2.1/v8-m.base/crtbegin.o
 .ARM.attributes
                0x00000052       0x32 build/Trustify/debug/_ext/2117940715/plib_nvmctrl.o
 .ARM.attributes
                0x00000084       0x32 build/Trustify/debug/_ext/1025033151/plib_evsys.o
 .ARM.attributes
                0x000000b6       0x32 build/Trustify/debug/_ext/1247632078/plib_sercom0_usart.o
 .ARM.attributes
                0x000000e8       0x32 build/Trustify/debug/_ext/1958438824/plib_pm.o
 .ARM.attributes
                0x0000011a       0x32 build/Trustify/debug/_ext/1060005641/interrupts.o
 .ARM.attributes
                0x0000014c       0x32 build/Trustify/debug/_ext/1060005641/initialization.o
 .ARM.attributes
                0x0000017e       0x32 build/Trustify/debug/_ext/1360937237/main.o
 .ARM.attributes
                0x000001b0       0x32 build/Trustify/debug/_ext/1060005641/exceptions.o
 .ARM.attributes
                0x000001e2       0x32 build/Trustify/debug/_ext/864028644/plib_port.o
 .ARM.attributes
                0x00000214       0x32 build/Trustify/debug/_ext/1027182637/plib_clock.o
 .ARM.attributes
                0x00000246       0x32 build/Trustify/debug/_ext/864081795/plib_nvic.o
 .ARM.attributes
                0x00000278       0x32 build/Trustify/debug/_ext/1060005641/startup_xc32.o
 .ARM.attributes
                0x000002aa       0x32 build/Trustify/debug/_ext/1542791463/bsp.o
 .ARM.attributes
                0x000002dc       0x30 c:/program files/microchip/xc32/v2.40/bin/bin/../../lib/gcc/pic32c/6.2.1/../../../../pic32c/lib/v8-m.base\libpic32c.a(data_init.o)
 .ARM.attributes
                0x0000030c       0x20 c:/program files/microchip/xc32/v2.40/bin/bin/../../lib/gcc/pic32c/6.2.1/v8-m.base\libgcc.a(cmse_nonsecure_call.o)
 .ARM.attributes
                0x0000032c       0x30 c:/program files/microchip/xc32/v2.40/bin/bin/../../lib/gcc/pic32c/6.2.1/../../../../pic32c/lib/v8-m.base\libg_nano.a(lib_a-init.o)
 .ARM.attributes
                0x0000035c       0x22 c:/program files/microchip/xc32/v2.40/bin/bin/../../lib/gcc/pic32c/6.2.1/v8-m.base/crtn.o

.comment        0x00000000       0x3c
 .comment       0x00000000       0x3c c:/program files/microchip/xc32/v2.40/bin/bin/../../lib/gcc/pic32c/6.2.1/v8-m.base/crtbegin.o
                                 0x3d (size before relaxing)
 .comment       0x0000003c       0x3d build/Trustify/debug/_ext/2117940715/plib_nvmctrl.o
 .comment       0x0000003c       0x3d build/Trustify/debug/_ext/1025033151/plib_evsys.o
 .comment       0x0000003c       0x3d build/Trustify/debug/_ext/1247632078/plib_sercom0_usart.o
 .comment       0x0000003c       0x3d build/Trustify/debug/_ext/1958438824/plib_pm.o
 .comment       0x0000003c       0x3d build/Trustify/debug/_ext/1060005641/interrupts.o
 .comment       0x0000003c       0x3d build/Trustify/debug/_ext/1060005641/initialization.o
 .comment       0x0000003c       0x3d build/Trustify/debug/_ext/1360937237/main.o
 .comment       0x0000003c       0x3d build/Trustify/debug/_ext/1060005641/exceptions.o
 .comment       0x0000003c       0x3d build/Trustify/debug/_ext/864028644/plib_port.o
 .comment       0x0000003c       0x3d build/Trustify/debug/_ext/1027182637/plib_clock.o
 .comment       0x0000003c       0x3d build/Trustify/debug/_ext/864081795/plib_nvic.o
 .comment       0x0000003c       0x3d build/Trustify/debug/_ext/1060005641/startup_xc32.o
 .comment       0x0000003c       0x3d build/Trustify/debug/_ext/1542791463/bsp.o
 .comment       0x0000003c       0x3d c:/program files/microchip/xc32/v2.40/bin/bin/../../lib/gcc/pic32c/6.2.1/../../../../pic32c/lib/v8-m.base\libpic32c.a(data_init.o)
 .comment       0x0000003c       0x3d c:/program files/microchip/xc32/v2.40/bin/bin/../../lib/gcc/pic32c/6.2.1/../../../../pic32c/lib/v8-m.base\libg_nano.a(lib_a-init.o)

.debug_info     0x00000000     0xb7d6
 .debug_info    0x00000000     0x1555 build/Trustify/debug/_ext/2117940715/plib_nvmctrl.o
 .debug_info    0x00001555      0x355 build/Trustify/debug/_ext/1025033151/plib_evsys.o
 .debug_info    0x000018aa     0x13a9 build/Trustify/debug/_ext/1247632078/plib_sercom0_usart.o
 .debug_info    0x00002c53      0x5a4 build/Trustify/debug/_ext/1958438824/plib_pm.o
 .debug_info    0x000031f7     0x15e5 build/Trustify/debug/_ext/1060005641/interrupts.o
 .debug_info    0x000047dc     0x12de build/Trustify/debug/_ext/1060005641/initialization.o
 .debug_info    0x00005aba      0xf5b build/Trustify/debug/_ext/1360937237/main.o
 .debug_info    0x00006a15      0xf3a build/Trustify/debug/_ext/1060005641/exceptions.o
 .debug_info    0x0000794f      0x868 build/Trustify/debug/_ext/864028644/plib_port.o
 .debug_info    0x000081b7      0xa38 build/Trustify/debug/_ext/1027182637/plib_clock.o
 .debug_info    0x00008bef      0x393 build/Trustify/debug/_ext/864081795/plib_nvic.o
 .debug_info    0x00008f82     0x1034 build/Trustify/debug/_ext/1060005641/startup_xc32.o
 .debug_info    0x00009fb6     0x113b build/Trustify/debug/_ext/1542791463/bsp.o
 .debug_info    0x0000b0f1      0x238 c:/program files/microchip/xc32/v2.40/bin/bin/../../lib/gcc/pic32c/6.2.1/../../../../pic32c/lib/v8-m.base\libpic32c.a(data_init.o)
 .debug_info    0x0000b329      0x102 c:/program files/microchip/xc32/v2.40/bin/bin/../../lib/gcc/pic32c/6.2.1/v8-m.base\libgcc.a(cmse_nonsecure_call.o)
 .debug_info    0x0000b42b      0x3ab c:/program files/microchip/xc32/v2.40/bin/bin/../../lib/gcc/pic32c/6.2.1/../../../../pic32c/lib/v8-m.base\libg_nano.a(lib_a-init.o)

.debug_abbrev   0x00000000     0x13d6
 .debug_abbrev  0x00000000      0x26a build/Trustify/debug/_ext/2117940715/plib_nvmctrl.o
 .debug_abbrev  0x0000026a       0x39 build/Trustify/debug/_ext/1025033151/plib_evsys.o
 .debug_abbrev  0x000002a3      0x286 build/Trustify/debug/_ext/1247632078/plib_sercom0_usart.o
 .debug_abbrev  0x00000529       0xd4 build/Trustify/debug/_ext/1958438824/plib_pm.o
 .debug_abbrev  0x000005fd      0x1a0 build/Trustify/debug/_ext/1060005641/interrupts.o
 .debug_abbrev  0x0000079d      0x1c4 build/Trustify/debug/_ext/1060005641/initialization.o
 .debug_abbrev  0x00000961      0x217 build/Trustify/debug/_ext/1360937237/main.o
 .debug_abbrev  0x00000b78      0x18f build/Trustify/debug/_ext/1060005641/exceptions.o
 .debug_abbrev  0x00000d07      0x133 build/Trustify/debug/_ext/864028644/plib_port.o
 .debug_abbrev  0x00000e3a       0xe9 build/Trustify/debug/_ext/1027182637/plib_clock.o
 .debug_abbrev  0x00000f23       0x68 build/Trustify/debug/_ext/864081795/plib_nvic.o
 .debug_abbrev  0x00000f8b      0x1d4 build/Trustify/debug/_ext/1060005641/startup_xc32.o
 .debug_abbrev  0x0000115f      0x196 build/Trustify/debug/_ext/1542791463/bsp.o
 .debug_abbrev  0x000012f5       0x2a c:/program files/microchip/xc32/v2.40/bin/bin/../../lib/gcc/pic32c/6.2.1/../../../../pic32c/lib/v8-m.base\libpic32c.a(data_init.o)
 .debug_abbrev  0x0000131f       0x14 c:/program files/microchip/xc32/v2.40/bin/bin/../../lib/gcc/pic32c/6.2.1/v8-m.base\libgcc.a(cmse_nonsecure_call.o)
 .debug_abbrev  0x00001333       0xa3 c:/program files/microchip/xc32/v2.40/bin/bin/../../lib/gcc/pic32c/6.2.1/../../../../pic32c/lib/v8-m.base\libg_nano.a(lib_a-init.o)

.debug_loc      0x00000000      0x975
 .debug_loc     0x00000000      0x17c build/Trustify/debug/_ext/2117940715/plib_nvmctrl.o
 .debug_loc     0x0000017c      0x5b8 build/Trustify/debug/_ext/1247632078/plib_sercom0_usart.o
 .debug_loc     0x00000734       0x7e build/Trustify/debug/_ext/1958438824/plib_pm.o
 .debug_loc     0x000007b2       0x41 build/Trustify/debug/_ext/1060005641/initialization.o
 .debug_loc     0x000007f3       0x58 build/Trustify/debug/_ext/1360937237/main.o
 .debug_loc     0x0000084b       0x84 build/Trustify/debug/_ext/864028644/plib_port.o
 .debug_loc     0x000008cf       0x20 build/Trustify/debug/_ext/1060005641/startup_xc32.o
 .debug_loc     0x000008ef       0x14 c:/program files/microchip/xc32/v2.40/bin/bin/../../lib/gcc/pic32c/6.2.1/../../../../pic32c/lib/v8-m.base\libpic32c.a(data_init.o)
 .debug_loc     0x00000903       0x72 c:/program files/microchip/xc32/v2.40/bin/bin/../../lib/gcc/pic32c/6.2.1/../../../../pic32c/lib/v8-m.base\libg_nano.a(lib_a-init.o)

.debug_aranges  0x00000000      0x318
 .debug_aranges
                0x00000000       0x60 build/Trustify/debug/_ext/2117940715/plib_nvmctrl.o
 .debug_aranges
                0x00000060       0x20 build/Trustify/debug/_ext/1025033151/plib_evsys.o
 .debug_aranges
                0x00000080       0x70 build/Trustify/debug/_ext/1247632078/plib_sercom0_usart.o
 .debug_aranges
                0x000000f0       0x40 build/Trustify/debug/_ext/1958438824/plib_pm.o
 .debug_aranges
                0x00000130       0x20 build/Trustify/debug/_ext/1060005641/interrupts.o
 .debug_aranges
                0x00000150       0x20 build/Trustify/debug/_ext/1060005641/initialization.o
 .debug_aranges
                0x00000170       0x20 build/Trustify/debug/_ext/1360937237/main.o
 .debug_aranges
                0x00000190       0x48 build/Trustify/debug/_ext/1060005641/exceptions.o
 .debug_aranges
                0x000001d8       0x60 build/Trustify/debug/_ext/864028644/plib_port.o
 .debug_aranges
                0x00000238       0x20 build/Trustify/debug/_ext/1027182637/plib_clock.o
 .debug_aranges
                0x00000258       0x20 build/Trustify/debug/_ext/864081795/plib_nvic.o
 .debug_aranges
                0x00000278       0x20 build/Trustify/debug/_ext/1060005641/startup_xc32.o
 .debug_aranges
                0x00000298       0x20 build/Trustify/debug/_ext/1542791463/bsp.o
 .debug_aranges
                0x000002b8       0x20 c:/program files/microchip/xc32/v2.40/bin/bin/../../lib/gcc/pic32c/6.2.1/../../../../pic32c/lib/v8-m.base\libpic32c.a(data_init.o)
 .debug_aranges
                0x000002d8       0x20 c:/program files/microchip/xc32/v2.40/bin/bin/../../lib/gcc/pic32c/6.2.1/v8-m.base\libgcc.a(cmse_nonsecure_call.o)
 .debug_aranges
                0x000002f8       0x20 c:/program files/microchip/xc32/v2.40/bin/bin/../../lib/gcc/pic32c/6.2.1/../../../../pic32c/lib/v8-m.base\libg_nano.a(lib_a-init.o)

.debug_ranges   0x00000000      0x208
 .debug_ranges  0x00000000       0x50 build/Trustify/debug/_ext/2117940715/plib_nvmctrl.o
 .debug_ranges  0x00000050       0x10 build/Trustify/debug/_ext/1025033151/plib_evsys.o
 .debug_ranges  0x00000060       0x60 build/Trustify/debug/_ext/1247632078/plib_sercom0_usart.o
 .debug_ranges  0x000000c0       0x30 build/Trustify/debug/_ext/1958438824/plib_pm.o
 .debug_ranges  0x000000f0       0x10 build/Trustify/debug/_ext/1060005641/interrupts.o
 .debug_ranges  0x00000100       0x10 build/Trustify/debug/_ext/1060005641/initialization.o
 .debug_ranges  0x00000110       0x10 build/Trustify/debug/_ext/1360937237/main.o
 .debug_ranges  0x00000120       0x38 build/Trustify/debug/_ext/1060005641/exceptions.o
 .debug_ranges  0x00000158       0x50 build/Trustify/debug/_ext/864028644/plib_port.o
 .debug_ranges  0x000001a8       0x10 build/Trustify/debug/_ext/1027182637/plib_clock.o
 .debug_ranges  0x000001b8       0x10 build/Trustify/debug/_ext/864081795/plib_nvic.o
 .debug_ranges  0x000001c8       0x10 build/Trustify/debug/_ext/1060005641/startup_xc32.o
 .debug_ranges  0x000001d8       0x10 build/Trustify/debug/_ext/1542791463/bsp.o
 .debug_ranges  0x000001e8       0x10 c:/program files/microchip/xc32/v2.40/bin/bin/../../lib/gcc/pic32c/6.2.1/../../../../pic32c/lib/v8-m.base\libpic32c.a(data_init.o)
 .debug_ranges  0x000001f8       0x10 c:/program files/microchip/xc32/v2.40/bin/bin/../../lib/gcc/pic32c/6.2.1/../../../../pic32c/lib/v8-m.base\libg_nano.a(lib_a-init.o)

.debug_line     0x00000000     0x1aa3
 .debug_line    0x00000000      0x25b build/Trustify/debug/_ext/2117940715/plib_nvmctrl.o
 .debug_line    0x0000025b       0x65 build/Trustify/debug/_ext/1025033151/plib_evsys.o
 .debug_line    0x000002c0      0x2c5 build/Trustify/debug/_ext/1247632078/plib_sercom0_usart.o
 .debug_line    0x00000585      0x19c build/Trustify/debug/_ext/1958438824/plib_pm.o
 .debug_line    0x00000721      0x1cc build/Trustify/debug/_ext/1060005641/interrupts.o
 .debug_line    0x000008ed      0x394 build/Trustify/debug/_ext/1060005641/initialization.o
 .debug_line    0x00000c81      0x23a build/Trustify/debug/_ext/1360937237/main.o
 .debug_line    0x00000ebb      0x193 build/Trustify/debug/_ext/1060005641/exceptions.o
 .debug_line    0x0000104e      0x1d0 build/Trustify/debug/_ext/864028644/plib_port.o
 .debug_line    0x0000121e      0x16a build/Trustify/debug/_ext/1027182637/plib_clock.o
 .debug_line    0x00001388       0xa7 build/Trustify/debug/_ext/864081795/plib_nvic.o
 .debug_line    0x0000142f      0x1ef build/Trustify/debug/_ext/1060005641/startup_xc32.o
 .debug_line    0x0000161e      0x1cd build/Trustify/debug/_ext/1542791463/bsp.o
 .debug_line    0x000017eb       0xe3 c:/program files/microchip/xc32/v2.40/bin/bin/../../lib/gcc/pic32c/6.2.1/../../../../pic32c/lib/v8-m.base\libpic32c.a(data_init.o)
 .debug_line    0x000018ce       0xbd c:/program files/microchip/xc32/v2.40/bin/bin/../../lib/gcc/pic32c/6.2.1/v8-m.base\libgcc.a(cmse_nonsecure_call.o)
 .debug_line    0x0000198b      0x118 c:/program files/microchip/xc32/v2.40/bin/bin/../../lib/gcc/pic32c/6.2.1/../../../../pic32c/lib/v8-m.base\libg_nano.a(lib_a-init.o)

.debug_str      0x00000000      0x2cb
 .debug_str     0x00000000       0x16 build/Trustify/debug/_ext/2117940715/plib_nvmctrl.o
 .debug_str     0x00000016        0x0 build/Trustify/debug/_ext/1025033151/plib_evsys.o
 .debug_str     0x00000016      0x11f build/Trustify/debug/_ext/1247632078/plib_sercom0_usart.o
 .debug_str     0x00000135        0x0 build/Trustify/debug/_ext/1958438824/plib_pm.o
 .debug_str     0x00000135        0xe build/Trustify/debug/_ext/1060005641/interrupts.o
 .debug_str     0x00000143       0x99 build/Trustify/debug/_ext/1060005641/initialization.o
 .debug_str     0x000001dc       0x31 build/Trustify/debug/_ext/1360937237/main.o
 .debug_str     0x0000020d        0xe build/Trustify/debug/_ext/1060005641/exceptions.o
 .debug_str     0x0000021b        0xb build/Trustify/debug/_ext/864028644/plib_port.o
 .debug_str     0x00000226       0x1e build/Trustify/debug/_ext/1027182637/plib_clock.o
 .debug_str     0x00000244        0x0 build/Trustify/debug/_ext/864081795/plib_nvic.o
 .debug_str     0x00000244       0x79 build/Trustify/debug/_ext/1060005641/startup_xc32.o
 .debug_str     0x000002bd        0xe build/Trustify/debug/_ext/1542791463/bsp.o
 .debug_str     0x000002cb        0x0 c:/program files/microchip/xc32/v2.40/bin/bin/../../lib/gcc/pic32c/6.2.1/../../../../pic32c/lib/v8-m.base\libpic32c.a(data_init.o)
 .debug_str     0x000002cb        0x0 c:/program files/microchip/xc32/v2.40/bin/bin/../../lib/gcc/pic32c/6.2.1/../../../../pic32c/lib/v8-m.base\libg_nano.a(lib_a-init.o)

.debug_frame    0x00000000      0x478
 .debug_frame   0x00000000       0xb0 build/Trustify/debug/_ext/2117940715/plib_nvmctrl.o
 .debug_frame   0x000000b0       0x20 build/Trustify/debug/_ext/1025033151/plib_evsys.o
 .debug_frame   0x000000d0       0xe4 build/Trustify/debug/_ext/1247632078/plib_sercom0_usart.o
 .debug_frame   0x000001b4       0x60 build/Trustify/debug/_ext/1958438824/plib_pm.o
 .debug_frame   0x00000214       0x20 build/Trustify/debug/_ext/1060005641/interrupts.o
 .debug_frame   0x00000234       0x28 build/Trustify/debug/_ext/1060005641/initialization.o
 .debug_frame   0x0000025c       0x2c build/Trustify/debug/_ext/1360937237/main.o
 .debug_frame   0x00000288       0x70 build/Trustify/debug/_ext/1060005641/exceptions.o
 .debug_frame   0x000002f8       0xa0 build/Trustify/debug/_ext/864028644/plib_port.o
 .debug_frame   0x00000398       0x20 build/Trustify/debug/_ext/1027182637/plib_clock.o
 .debug_frame   0x000003b8       0x20 build/Trustify/debug/_ext/864081795/plib_nvic.o
 .debug_frame   0x000003d8       0x28 build/Trustify/debug/_ext/1060005641/startup_xc32.o
 .debug_frame   0x00000400       0x20 build/Trustify/debug/_ext/1542791463/bsp.o
 .debug_frame   0x00000420       0x2c c:/program files/microchip/xc32/v2.40/bin/bin/../../lib/gcc/pic32c/6.2.1/../../../../pic32c/lib/v8-m.base\libpic32c.a(data_init.o)
 .debug_frame   0x0000044c       0x2c c:/program files/microchip/xc32/v2.40/bin/bin/../../lib/gcc/pic32c/6.2.1/../../../../pic32c/lib/v8-m.base\libg_nano.a(lib_a-init.o)

.stack          0x20000038      0x100
 .stack         0x20000038      0x100 stack

.bss%1          0x20000000       0x1c
 .bss           0x20000000       0x1c c:/program files/microchip/xc32/v2.40/bin/bin/../../lib/gcc/pic32c/6.2.1/v8-m.base/crtbegin.o

.eh_frame%z1    0x00000000        0x0
 .eh_frame      0x00000000        0x0 c:/program files/microchip/xc32/v2.40/bin/bin/../../lib/gcc/pic32c/6.2.1/v8-m.base/crtbegin.o

.text.CLOCK_Initialize%2
                0x00000114       0xa4
 .text.CLOCK_Initialize
                0x00000114       0xa4 build/Trustify/debug/_ext/1027182637/plib_clock.o
                0x00000114                CLOCK_Initialize

.text.__pic32c_data_initialization%3
                0x000001b8       0x88
 .text.__pic32c_data_initialization
                0x000001b8       0x88 c:/program files/microchip/xc32/v2.40/bin/bin/../../lib/gcc/pic32c/6.2.1/../../../../pic32c/lib/v8-m.base\libpic32c.a(data_init.o)
                0x000001b8                __pic32c_data_initialization

.text.Reset_Handler%4
                0x00000240       0x50
 .text.Reset_Handler
                0x00000240       0x50 build/Trustify/debug/_ext/1060005641/startup_xc32.o
                0x00000240                Reset_Handler

.text.__libc_init_array%5
                0x00000290       0x48
 .text.__libc_init_array
                0x00000290       0x48 c:/program files/microchip/xc32/v2.40/bin/bin/../../lib/gcc/pic32c/6.2.1/../../../../pic32c/lib/v8-m.base\libg_nano.a(lib_a-init.o)
                0x00000290                __libc_init_array

.text%6         0x000002d8       0x40
 .text          0x000002d8       0x40 c:/program files/microchip/xc32/v2.40/bin/bin/../../lib/gcc/pic32c/6.2.1/v8-m.base/crtbegin.o

.text.main%7    0x00000318       0x40
 .text.main     0x00000318       0x40 build/Trustify/debug/_ext/1360937237/main.o
                0x00000318                main

.text.SERCOM0_USART_Initialize%8
                0x00000358       0x38
 .text.SERCOM0_USART_Initialize
                0x00000358       0x38 build/Trustify/debug/_ext/1247632078/plib_sercom0_usart.o
                0x00000358                SERCOM0_USART_Initialize

.text%9         0x00000390       0x32
 .text          0x00000390       0x32 c:/program files/microchip/xc32/v2.40/bin/bin/../../lib/gcc/pic32c/6.2.1/v8-m.base\libgcc.a(cmse_nonsecure_call.o)
                0x00000390                __gnu_cmse_nonsecure_call

.text.SERCOM0_USART_Write%10
                0x000003c4       0x30
 .text.SERCOM0_USART_Write
                0x000003c4       0x30 build/Trustify/debug/_ext/1247632078/plib_sercom0_usart.o
                0x000003c4                SERCOM0_USART_Write

.text.SYS_Initialize%11
                0x000003f4       0x30
 .text.SYS_Initialize
                0x000003f4       0x30 build/Trustify/debug/_ext/1060005641/initialization.o
                0x000003f4                SYS_Initialize

.text.PM_Initialize%12
                0x00000424       0x24
 .text.PM_Initialize
                0x00000424       0x24 build/Trustify/debug/_ext/1958438824/plib_pm.o
                0x00000424                PM_Initialize

.text.PORT_Initialize%13
                0x00000448       0x20
 .text.PORT_Initialize
                0x00000448       0x20 build/Trustify/debug/_ext/864028644/plib_port.o
                0x00000448                PORT_Initialize

.dinit%14       0x00000468       0x20
 .dinit         0x00000468       0x20 data_init

.text.secure_add%15
                0x00000488       0x1a
 .text.secure_add
                0x00000488       0x1a build/Trustify/debug/_ext/1903470166/veneer.o
                0x00000488                __acle_se_secure_add

.text.NVMCTRL_Initialize%16
                0x000004a4       0x10
 .text.NVMCTRL_Initialize
                0x000004a4       0x10 build/Trustify/debug/_ext/2117940715/plib_nvmctrl.o
                0x000004a4                NVMCTRL_Initialize

.text.BSP_Initialize%17
                0x000004b4        0xc
 .text.BSP_Initialize
                0x000004b4        0xc build/Trustify/debug/_ext/1542791463/bsp.o
                0x000004b4                BSP_Initialize

.rodata%18      0x000004c0        0x8
 .rodata        0x000004c0        0x8 build/Trustify/debug/_ext/1360937237/main.o

.text.NVIC_Initialize%19
                0x000004c8        0x8
 .text.NVIC_Initialize
                0x000004c8        0x8 build/Trustify/debug/_ext/864081795/plib_nvic.o
                0x000004c8                NVIC_Initialize

.text.Dummy_Handler%20
                0x000004d0        0x4
 .text.Dummy_Handler
                0x000004d0        0x4 build/Trustify/debug/_ext/1060005641/interrupts.o
                0x000004d0                SVCall_Handler
                0x000004d0                SERCOM0_2_Handler
                0x000004d0                EVSYS_0_Handler
                0x000004d0                TRNG_Handler
                0x000004d0                ADC_RESRDY_Handler
                0x000004d0                TC2_Handler
                0x000004d0                AC_Handler
                0x000004d0                DMAC_OTHER_Handler
                0x000004d0                SysTick_Handler
                0x000004d0                PendSV_Handler
                0x000004d0                EVSYS_3_Handler
                0x000004d0                SERCOM0_OTHER_Handler
                0x000004d0                SERCOM0_0_Handler
                0x000004d0                RTC_Handler
                0x000004d0                SERCOM1_OTHER_Handler
                0x000004d0                EVSYS_1_Handler
                0x000004d0                DMAC_0_Handler
                0x000004d0                WDT_Handler
                0x000004d0                TRAM_Handler
                0x000004d0                EVSYS_NSCHK_Handler
                0x000004d0                EIC_EXTINT_1_Handler
                0x000004d0                TC1_Handler
                0x000004d0                EIC_EXTINT_0_Handler
                0x000004d0                DAC_EMPTY_Handler
                0x000004d0                PAC_Handler
                0x000004d0                Dummy_Handler
                0x000004d0                DMAC_2_Handler
                0x000004d0                SERCOM0_1_Handler
                0x000004d0                DMAC_1_Handler
                0x000004d0                EIC_EXTINT_2_Handler
                0x000004d0                SERCOM1_1_Handler
                0x000004d0                NVMCTRL_Handler
                0x000004d0                PORT_Handler
                0x000004d0                SYSTEM_Handler
                0x000004d0                SERCOM1_0_Handler
                0x000004d0                SERCOM2_1_Handler
                0x000004d0                SERCOM1_2_Handler
                0x000004d0                SERCOM2_2_Handler
                0x000004d0                EIC_EXTINT_3_Handler
                0x000004d0                PTC_Handler
                0x000004d0                EVSYS_2_Handler
                0x000004d0                SERCOM2_OTHER_Handler
                0x000004d0                FREQM_Handler
                0x000004d0                DAC_UNDERRUN_A_Handler
                0x000004d0                TC0_Handler
                0x000004d0                EIC_OTHER_Handler
                0x000004d0                ADC_OTHER_Handler
                0x000004d0                DMAC_3_Handler
                0x000004d0                SERCOM2_0_Handler

.text.add%21    0x000004d4        0x4
 .text.add      0x000004d4        0x4 build/Trustify/debug/_ext/1903470166/secure.o
                0x000004d4                add

.text.NonMaskableInt_Handler%22
                0x000004d8        0x4
 .text.NonMaskableInt_Handler
                0x000004d8        0x4 build/Trustify/debug/_ext/1060005641/exceptions.o
                0x000004d8                NonMaskableInt_Handler

.text.HardFault_Handler%23
                0x000004dc        0x4
 .text.HardFault_Handler
                0x000004dc        0x4 build/Trustify/debug/_ext/1060005641/exceptions.o
                0x000004dc                HardFault_Handler

.text.EVSYS_Initialize%24
                0x000003c2        0x2
 .text.EVSYS_Initialize
                0x000003c2        0x2 build/Trustify/debug/_ext/1025033151/plib_evsys.o
                0x000003c2                EVSYS_Initialize
